; Function Attrs: mustprogress uwtable
define hidden noundef zeroext i1 @_ZNK7datalog12rule_manager18contains_predicateEP4expr(ptr nocapture noundef nonnull readonly align 8 dereferenceable(1368) %this, ptr noundef %fml) local_unnamed_addr #3 align 2 personality ptr @__gxx_personality_v0 {
entry:
  %visited.i = alloca %class.ast_fast_mark, align 8
  %proc = alloca %"class.datalog::contains_predicate_proc", align 8
  %m_ctx = getelementptr inbounds i8, ptr %this, i64 8
  %0 = load ptr, ptr %m_ctx, align 8
  store ptr %0, ptr %proc, align 8
  call void @llvm.lifetime.start.p0(i64 144, ptr nonnull %visited.i)
  %m_initial_buffer.i.i.i.i = getelementptr inbounds i8, ptr %visited.i, i64 16
  store ptr %m_initial_buffer.i.i.i.i, ptr %visited.i, align 8
  %m_pos.i.i.i.i = getelementptr inbounds i8, ptr %visited.i, i64 8
  store i32 0, ptr %m_pos.i.i.i.i, align 8
  %m_capacity.i.i.i.i = getelementptr inbounds i8, ptr %visited.i, i64 12
  store i32 16, ptr %m_capacity.i.i.i.i, align 4
  invoke void @_Z18for_each_expr_coreIN7datalog23contains_predicate_procE13ast_fast_markILj1EELb0ELb0EEvRT_RT0_P4expr(ptr noundef nonnull align 8 dereferenceable(8) %proc, ptr noundef nonnull align 8 dereferenceable(144) %visited.i, ptr noundef %fml)
          to label %invoke.cont.i unwind label %lpad.i

invoke.cont.i:                                    ; preds = %entry
  %1 = load ptr, ptr %visited.i, align 8
  %2 = load i32, ptr %m_pos.i.i.i.i, align 8
  %idx.ext.i.i.i.i = zext i32 %2 to i64
  %add.ptr.i.i.i.i = getelementptr inbounds ptr, ptr %1, i64 %idx.ext.i.i.i.i
  %cmp.not4.i.i.i = icmp eq i32 %2, 0
  br i1 %cmp.not4.i.i.i, label %invoke.cont.i.i, label %for.body.i.i.i

for.body.i.i.i:                                   ; preds = %invoke.cont.i, %for.body.i.i.i
  %__begin2.05.i.i.i = phi ptr [ %incdec.ptr.i.i.i, %for.body.i.i.i ], [ %1, %invoke.cont.i ]
  %3 = load ptr, ptr %__begin2.05.i.i.i, align 8
  %m_mark1.i.i.i.i.i = getelementptr inbounds i8, ptr %3, i64 4
  %bf.load.i.i.i.i.i = load i32, ptr %m_mark1.i.i.i.i.i, align 4
  %bf.clear.i.i.i.i.i = and i32 %bf.load.i.i.i.i.i, -65537
  store i32 %bf.clear.i.i.i.i.i, ptr %m_mark1.i.i.i.i.i, align 4
  %incdec.ptr.i.i.i = getelementptr inbounds i8, ptr %__begin2.05.i.i.i, i64 8
  %cmp.not.i.i.i = icmp eq ptr %incdec.ptr.i.i.i, %add.ptr.i.i.i.i
  br i1 %cmp.not.i.i.i, label %invoke.cont.loopexit.i.i, label %for.body.i.i.i

invoke.cont.loopexit.i.i:                         ; preds = %for.body.i.i.i
  %.pre.i.i = load ptr, ptr %visited.i, align 8
  br label %invoke.cont.i.i

invoke.cont.i.i:                                  ; preds = %invoke.cont.loopexit.i.i, %invoke.cont.i
  %4 = phi ptr [ %.pre.i.i, %invoke.cont.loopexit.i.i ], [ %1, %invoke.cont.i ]
  store i32 0, ptr %m_pos.i.i.i.i, align 8
  %cmp.not.i.i.i.i.i.i = icmp eq ptr %4, %m_initial_buffer.i.i.i.i
  %cmp.i.i.i.i.i.i.i = icmp eq ptr %4, null
  %or.cond.i.i.i.i.i.i = or i1 %cmp.not.i.i.i.i.i.i, %cmp.i.i.i.i.i.i.i
  br i1 %or.cond.i.i.i.i.i.i, label %_Z19quick_for_each_exprIN7datalog23contains_predicate_procEEvRT_P4expr.exit, label %if.end.i.i.i.i.i.i.i

if.end.i.i.i.i.i.i.i:                             ; preds = %invoke.cont.i.i
  invoke void @_ZN6memory10deallocateEPv(ptr noundef nonnull %4)
          to label %_Z19quick_for_each_exprIN7datalog23contains_predicate_procEEvRT_P4expr.exit unwind label %terminate.lpad.i.i.i.i

terminate.lpad.i.i.i.i:                           ; preds = %if.end.i.i.i.i.i.i.i
  %5 = landingpad { ptr, i32 }
          catch ptr null
  %6 = extractvalue { ptr, i32 } %5, 0
  call void @__clang_call_terminate(ptr %6) #21
  unreachable

lpad.i:                                           ; preds = %entry
  %7 = landingpad { ptr, i32 }
          cleanup
          catch ptr @_ZTIN7datalog23contains_predicate_proc5foundE
  call void @_ZN13ast_fast_markILj1EED2Ev(ptr noundef nonnull align 8 dereferenceable(144) %visited.i) #20
  %8 = extractvalue { ptr, i32 } %7, 1
  %9 = call i32 @llvm.eh.typeid.for(ptr nonnull @_ZTIN7datalog23contains_predicate_proc5foundE) #20
  %matches = icmp eq i32 %8, %9
  br i1 %matches, label %catch, label %eh.resume

_Z19quick_for_each_exprIN7datalog23contains_predicate_procEEvRT_P4expr.exit: ; preds = %invoke.cont.i.i, %if.end.i.i.i.i.i.i.i
  call void @llvm.lifetime.end.p0(i64 144, ptr nonnull %visited.i)
  br label %return

catch:                                            ; preds = %lpad.i
  %10 = extractvalue { ptr, i32 } %7, 0
  %11 = call ptr @__cxa_begin_catch(ptr %10) #20
  call void @__cxa_end_catch()
  br label %return

return:                                           ; preds = %_Z19quick_for_each_exprIN7datalog23contains_predicate_procEEvRT_P4expr.exit, %catch
  %retval.0 = phi i1 [ true, %catch ], [ false, %_Z19quick_for_each_exprIN7datalog23contains_predicate_procEEvRT_P4expr.exit ]
  ret i1 %retval.0

eh.resume:                                        ; preds = %lpad.i
  resume { ptr, i32 } %7
}